target datalayout = "e-m:e-p270:32:32-p271:32:32-p272:64:64-i64:64-i128:128-f80:128-n8:16:32:64-S128"
target triple = "x86_64-pc-linux-gnu"

%"class.pxrInternal_v0_24__pxrReserved__::UsdValidator" = type { %"struct.pxrInternal_v0_24__pxrReserved__::UsdValidatorMetadata", %"class.std::variant" }
%"struct.pxrInternal_v0_24__pxrReserved__::UsdValidatorMetadata" = type <{ %"class.pxrInternal_v0_24__pxrReserved__::TfToken", %"class.pxrInternal_v0_24__pxrReserved__::TfWeakPtr", %"class.std::vector", %"class.std::__cxx11::basic_string", %"class.std::vector", i8, [7 x i8] }>
%"class.pxrInternal_v0_24__pxrReserved__::TfToken" = type { %"class.pxrInternal_v0_24__pxrReserved__::TfPointerAndBits" }
%"class.pxrInternal_v0_24__pxrReserved__::TfPointerAndBits" = type { ptr }
%"class.pxrInternal_v0_24__pxrReserved__::TfWeakPtr" = type { ptr, %"class.pxrInternal_v0_24__pxrReserved__::TfRefPtr" }
%"class.pxrInternal_v0_24__pxrReserved__::TfRefPtr" = type { ptr }
%"class.std::__cxx11::basic_string" = type { %"struct.std::__cxx11::basic_string<char>::_Alloc_hider", i64, %union.anon }
%"struct.std::__cxx11::basic_string<char>::_Alloc_hider" = type { ptr }
%union.anon = type { i64, [8 x i8] }
%"class.std::vector" = type { %"struct.std::_Vector_base" }
%"struct.std::_Vector_base" = type { %"struct.std::_Vector_base<pxrInternal_v0_24__pxrReserved__::TfToken, std::allocator<pxrInternal_v0_24__pxrReserved__::TfToken>>::_Vector_impl" }
%"struct.std::_Vector_base<pxrInternal_v0_24__pxrReserved__::TfToken, std::allocator<pxrInternal_v0_24__pxrReserved__::TfToken>>::_Vector_impl" = type { %"struct.std::_Vector_base<pxrInternal_v0_24__pxrReserved__::TfToken, std::allocator<pxrInternal_v0_24__pxrReserved__::TfToken>>::_Vector_impl_data" }
%"struct.std::_Vector_base<pxrInternal_v0_24__pxrReserved__::TfToken, std::allocator<pxrInternal_v0_24__pxrReserved__::TfToken>>::_Vector_impl_data" = type { ptr, ptr, ptr }
%"class.std::variant" = type { %"struct.std::__detail::__variant::_Variant_base.base", [7 x i8] }
%"struct.std::__detail::__variant::_Variant_base.base" = type { %"struct.std::__detail::__variant::_Move_assign_base.base" }
%"struct.std::__detail::__variant::_Move_assign_base.base" = type { %"struct.std::__detail::__variant::_Copy_assign_base.base" }
%"struct.std::__detail::__variant::_Copy_assign_base.base" = type { %"struct.std::__detail::__variant::_Move_ctor_base.base" }
%"struct.std::__detail::__variant::_Move_ctor_base.base" = type { %"struct.std::__detail::__variant::_Copy_ctor_base.base" }
%"struct.std::__detail::__variant::_Copy_ctor_base.base" = type { %"struct.std::__detail::__variant::_Variant_storage.base" }
%"struct.std::__detail::__variant::_Variant_storage.base" = type { %"union.std::__detail::__variant::_Variadic_union", i8 }
%"union.std::__detail::__variant::_Variadic_union" = type { %"struct.std::__detail::__variant::_Uninitialized" }
%"struct.std::__detail::__variant::_Uninitialized" = type { %"struct.__gnu_cxx::__aligned_membuf" }
%"struct.__gnu_cxx::__aligned_membuf" = type { [32 x i8] }
%"class.std::_Function_base" = type { %"union.std::_Any_data", ptr }
%"union.std::_Any_data" = type { %"union.std::_Nocopy_types" }
%"union.std::_Nocopy_types" = type { { i64, i64 } }
%"class.std::function.10" = type { %"class.std::_Function_base", ptr }
%"struct.std::__detail::__variant::_Variant_storage" = type { %"union.std::__detail::__variant::_Variadic_union", i8, [7 x i8] }
%"struct.std::__detail::__variant::_Uninitialized.4" = type { %"struct.__gnu_cxx::__aligned_membuf.5" }
%"struct.__gnu_cxx::__aligned_membuf.5" = type { [32 x i8] }

; Function Attrs: mustprogress nounwind uwtable
define linkonce_odr noundef zeroext i1 @_ZNKSt14_Function_base8_M_emptyEv(ptr noundef nonnull align 8 dereferenceable(24) %0) #1 comdat align 2 {
  %2 = alloca ptr, align 8
  store ptr %0, ptr %2, align 8
  %3 = load ptr, ptr %2, align 8
  %4 = getelementptr inbounds nuw %"class.std::_Function_base", ptr %3, i32 0, i32 1
  %5 = load ptr, ptr %4, align 8
  %6 = icmp ne ptr %5, null
  %7 = xor i1 %6, true
  ret i1 %7
}

; Function Attrs: mustprogress nounwind uwtable
define linkonce_odr void @_ZNSt14_Function_baseD2Ev(ptr noundef nonnull align 8 dereferenceable(24) %0) unnamed_addr #1 comdat align 2 personality ptr @__gxx_personality_v0 {
  %2 = alloca ptr, align 8
  store ptr %0, ptr %2, align 8
  %3 = load ptr, ptr %2, align 8
  %4 = getelementptr inbounds nuw %"class.std::_Function_base", ptr %3, i32 0, i32 1
  %5 = load ptr, ptr %4, align 8
  %6 = icmp ne ptr %5, null
  br i1 %6, label %7, label %14

7:                                                ; preds = %1
  %8 = getelementptr inbounds nuw %"class.std::_Function_base", ptr %3, i32 0, i32 1
  %9 = load ptr, ptr %8, align 8
  %10 = getelementptr inbounds nuw %"class.std::_Function_base", ptr %3, i32 0, i32 0
  %11 = getelementptr inbounds nuw %"class.std::_Function_base", ptr %3, i32 0, i32 0
  %12 = invoke noundef zeroext i1 %9(ptr noundef nonnull align 8 dereferenceable(16) %10, ptr noundef nonnull align 8 dereferenceable(16) %11, i32 noundef 3)
          to label %13 unwind label %15

13:                                               ; preds = %7
  br label %14

14:                                               ; preds = %13, %1
  ret void

15:                                               ; preds = %7
  %16 = landingpad { ptr, i32 }
          catch ptr null
  %17 = extractvalue { ptr, i32 } %16, 0
  call void @__clang_call_terminate(ptr %17) #13
  unreachable
}

; Function Attrs: mustprogress nounwind uwtable
define linkonce_odr noundef zeroext i1 @_ZNKSt8functionIFSt6vectorIN32pxrInternal_v0_24__pxrReserved__18UsdValidationErrorESaIS2_EERKNS1_9TfWeakPtrINS1_8UsdStageEEEEEcvbEv(ptr noundef nonnull align 8 dereferenceable(32) %0) #1 comdat align 2 {
  %2 = alloca ptr, align 8
  store ptr %0, ptr %2, align 8
  %3 = load ptr, ptr %2, align 8
  %4 = call noundef zeroext i1 @_ZNKSt14_Function_base8_M_emptyEv(ptr noundef nonnull align 8 dereferenceable(24) %3)
  %5 = xor i1 %4, true
  ret i1 %5
}

; Function Attrs: mustprogress nounwind uwtable
define linkonce_odr void @_ZNSt14_Function_baseC2Ev(ptr noundef nonnull align 8 dereferenceable(24) %0) unnamed_addr #1 comdat align 2 {
  %2 = alloca ptr, align 8
  store ptr %0, ptr %2, align 8
  %3 = load ptr, ptr %2, align 8
  %4 = getelementptr inbounds nuw %"class.std::_Function_base", ptr %3, i32 0, i32 0
  store ptr null, ptr %4, align 8
  %5 = getelementptr inbounds nuw %"class.std::_Function_base", ptr %3, i32 0, i32 1
  store ptr null, ptr %5, align 8
  ret void
}

; Function Attrs: mustprogress uwtable
define linkonce_odr void @_ZNSt8functionIFSt6vectorIN32pxrInternal_v0_24__pxrReserved__18UsdValidationErrorESaIS2_EERKNS1_9TfWeakPtrINS1_8UsdStageEEEEEC2ERKSB_(ptr noundef nonnull align 8 dereferenceable(32) %0, ptr noundef nonnull align 8 dereferenceable(32) %1) unnamed_addr #0 comdat align 2 personality ptr @__gxx_personality_v0 {
  %3 = alloca ptr, align 8
  %4 = alloca ptr, align 8
  %5 = alloca ptr, align 8
  %6 = alloca i32, align 4
  store ptr %0, ptr %3, align 8
  store ptr %1, ptr %4, align 8
  %7 = load ptr, ptr %3, align 8
  %8 = getelementptr inbounds i8, ptr %7, i64 0
  call void @llvm.memset.p0.i64(ptr align 8 %8, i8 0, i64 24, i1 false)
  call void @_ZNSt14_Function_baseC2Ev(ptr noundef nonnull align 8 dereferenceable(24) %7) #11
  %9 = getelementptr inbounds nuw %"class.std::function.10", ptr %7, i32 0, i32 1
  store ptr null, ptr %9, align 8
  %10 = load ptr, ptr %4, align 8
  %11 = call noundef zeroext i1 @_ZNKSt8functionIFSt6vectorIN32pxrInternal_v0_24__pxrReserved__18UsdValidationErrorESaIS2_EERKNS1_9TfWeakPtrINS1_8UsdStageEEEEEcvbEv(ptr noundef nonnull align 8 dereferenceable(32) %10) #11
  br i1 %11, label %12, label %33

12:                                               ; preds = %2
  %13 = load ptr, ptr %4, align 8
  %14 = getelementptr inbounds nuw %"class.std::_Function_base", ptr %13, i32 0, i32 1
  %15 = load ptr, ptr %14, align 8
  %16 = getelementptr inbounds nuw %"class.std::_Function_base", ptr %7, i32 0, i32 0
  %17 = load ptr, ptr %4, align 8
  %18 = getelementptr inbounds nuw %"class.std::_Function_base", ptr %17, i32 0, i32 0
  %19 = invoke noundef zeroext i1 %15(ptr noundef nonnull align 8 dereferenceable(16) %16, ptr noundef nonnull align 8 dereferenceable(16) %18, i32 noundef 2)
          to label %20 unwind label %29

20:                                               ; preds = %12
  %21 = load ptr, ptr %4, align 8
  %22 = getelementptr inbounds nuw %"class.std::function.10", ptr %21, i32 0, i32 1
  %23 = load ptr, ptr %22, align 8
  %24 = getelementptr inbounds nuw %"class.std::function.10", ptr %7, i32 0, i32 1
  store ptr %23, ptr %24, align 8
  %25 = load ptr, ptr %4, align 8
  %26 = getelementptr inbounds nuw %"class.std::_Function_base", ptr %25, i32 0, i32 1
  %27 = load ptr, ptr %26, align 8
  %28 = getelementptr inbounds nuw %"class.std::_Function_base", ptr %7, i32 0, i32 1
  store ptr %27, ptr %28, align 8
  br label %33

29:                                               ; preds = %12
  %30 = landingpad { ptr, i32 }
          cleanup
  %31 = extractvalue { ptr, i32 } %30, 0
  store ptr %31, ptr %5, align 8
  %32 = extractvalue { ptr, i32 } %30, 1
  store i32 %32, ptr %6, align 4
  call void @_ZNSt14_Function_baseD2Ev(ptr noundef nonnull align 8 dereferenceable(24) %7) #11
  br label %34

33:                                               ; preds = %20, %2
  ret void

34:                                               ; preds = %29
  %35 = load ptr, ptr %5, align 8
  %36 = load i32, ptr %6, align 4
  %37 = insertvalue { ptr, i32 } poison, ptr %35, 0
  %38 = insertvalue { ptr, i32 } %37, i32 %36, 1
  resume { ptr, i32 } %38
}

; Function Attrs: mustprogress uwtable
define linkonce_odr void @_ZNSt8__detail9__variant14_UninitializedISt8functionIFSt6vectorIN32pxrInternal_v0_24__pxrReserved__18UsdValidationErrorESaIS5_EERKNS4_9TfWeakPtrINS4_8UsdStageEEEEELb0EEC2IJRKSE_EEESt16in_place_index_tILm0EEDpOT_(ptr noundef nonnull align 8 dereferenceable(32) %0, ptr noundef nonnull align 8 dereferenceable(32) %1) unnamed_addr #0 comdat align 2 {
  %3 = alloca ptr, align 8
  %4 = alloca ptr, align 8
  store ptr %0, ptr %3, align 8
  store ptr %1, ptr %4, align 8
  %5 = load ptr, ptr %3, align 8
  %6 = getelementptr inbounds nuw %"struct.std::__detail::__variant::_Uninitialized.4", ptr %5, i32 0, i32 0
  %7 = load ptr, ptr %4, align 8
  call void @_ZNSt8functionIFSt6vectorIN32pxrInternal_v0_24__pxrReserved__18UsdValidationErrorESaIS2_EERKNS1_9TfWeakPtrINS1_8UsdStageEEEEEC2ERKSB_(ptr noundef nonnull align 8 dereferenceable(32) %6, ptr noundef nonnull align 8 dereferenceable(32) %7)
  ret void
}

; Function Attrs: mustprogress uwtable
define linkonce_odr void @_ZNSt8__detail9__variant15_Variadic_unionIJSt8functionIFSt6vectorIN32pxrInternal_v0_24__pxrReserved__18UsdValidationErrorESaIS5_EERKNS4_9TfWeakPtrINS4_8UsdStageEEEEES2_IFS7_RKNS4_7UsdPrimEEEEEC2IJRKSE_EEESt16in_place_index_tILm0EEDpOT_(ptr noundef nonnull align 8 dereferenceable(32) %0, ptr noundef nonnull align 8 dereferenceable(32) %1) unnamed_addr #0 comdat align 2 {
  %3 = alloca ptr, align 8
  %4 = alloca ptr, align 8
  store ptr %0, ptr %3, align 8
  store ptr %1, ptr %4, align 8
  %5 = load ptr, ptr %3, align 8
  %6 = load ptr, ptr %4, align 8
  call void @_ZNSt8__detail9__variant14_UninitializedISt8functionIFSt6vectorIN32pxrInternal_v0_24__pxrReserved__18UsdValidationErrorESaIS5_EERKNS4_9TfWeakPtrINS4_8UsdStageEEEEELb0EEC2IJRKSE_EEESt16in_place_index_tILm0EEDpOT_(ptr noundef nonnull align 8 dereferenceable(32) %5, ptr noundef nonnull align 8 dereferenceable(32) %6)
  ret void
}

; Function Attrs: mustprogress uwtable
define linkonce_odr void @_ZNSt8__detail9__variant15_Variadic_unionIJSt8functionIFSt6vectorIN32pxrInternal_v0_24__pxrReserved__18UsdValidationErrorESaIS5_EERKNS4_9TfWeakPtrINS4_8SdfLayerEEEEES2_IFS7_RKNS8_INS4_8UsdStageEEEEES2_IFS7_RKNS4_7UsdPrimEEEEEC2ILm1EJRKSK_EEESt16in_place_index_tIXT_EEDpOT0_(ptr noundef nonnull align 8 dereferenceable(32) %0, ptr noundef nonnull align 8 dereferenceable(32) %1) unnamed_addr #0 comdat align 2 {
  %3 = alloca ptr, align 8
  %4 = alloca ptr, align 8
  store ptr %0, ptr %3, align 8
  store ptr %1, ptr %4, align 8
  %5 = load ptr, ptr %3, align 8
  %6 = load ptr, ptr %4, align 8
  call void @_ZNSt8__detail9__variant15_Variadic_unionIJSt8functionIFSt6vectorIN32pxrInternal_v0_24__pxrReserved__18UsdValidationErrorESaIS5_EERKNS4_9TfWeakPtrINS4_8UsdStageEEEEES2_IFS7_RKNS4_7UsdPrimEEEEEC2IJRKSE_EEESt16in_place_index_tILm0EEDpOT_(ptr noundef nonnull align 8 dereferenceable(32) %5, ptr noundef nonnull align 8 dereferenceable(32) %6)
  ret void
}

; Function Attrs: mustprogress uwtable
define linkonce_odr void @_ZNSt8__detail9__variant16_Variant_storageILb0EJSt8functionIFSt6vectorIN32pxrInternal_v0_24__pxrReserved__18UsdValidationErrorESaIS5_EERKNS4_9TfWeakPtrINS4_8SdfLayerEEEEES2_IFS7_RKNS8_INS4_8UsdStageEEEEES2_IFS7_RKNS4_7UsdPrimEEEEEC2ILm1EJRKSK_EEESt16in_place_index_tIXT_EEDpOT0_(ptr noundef nonnull align 8 dereferenceable(33) %0, ptr noundef nonnull align 8 dereferenceable(32) %1) unnamed_addr #0 comdat align 2 {
  %3 = alloca ptr, align 8
  %4 = alloca ptr, align 8
  store ptr %0, ptr %3, align 8
  store ptr %1, ptr %4, align 8
  %5 = load ptr, ptr %3, align 8
  %6 = getelementptr inbounds nuw %"struct.std::__detail::__variant::_Variant_storage", ptr %5, i32 0, i32 0
  %7 = load ptr, ptr %4, align 8
  call void @_ZNSt8__detail9__variant15_Variadic_unionIJSt8functionIFSt6vectorIN32pxrInternal_v0_24__pxrReserved__18UsdValidationErrorESaIS5_EERKNS4_9TfWeakPtrINS4_8SdfLayerEEEEES2_IFS7_RKNS8_INS4_8UsdStageEEEEES2_IFS7_RKNS4_7UsdPrimEEEEEC2ILm1EJRKSK_EEESt16in_place_index_tIXT_EEDpOT0_(ptr noundef nonnull align 8 dereferenceable(32) %6, ptr noundef nonnull align 8 dereferenceable(32) %7)
  %8 = getelementptr inbounds nuw %"struct.std::__detail::__variant::_Variant_storage", ptr %5, i32 0, i32 1
  store i8 1, ptr %8, align 8
  ret void
}

; Function Attrs: mustprogress uwtable
define linkonce_odr void @_ZNSt8__detail9__variant15_Copy_ctor_baseILb0EJSt8functionIFSt6vectorIN32pxrInternal_v0_24__pxrReserved__18UsdValidationErrorESaIS5_EERKNS4_9TfWeakPtrINS4_8SdfLayerEEEEES2_IFS7_RKNS8_INS4_8UsdStageEEEEES2_IFS7_RKNS4_7UsdPrimEEEEECI2NS0_16_Variant_storageILb0EJSE_SK_SP_EEEILm1EJRKSK_EEESt16in_place_index_tIXT_EEDpOT0_(ptr noundef nonnull align 8 dereferenceable(33) %0, ptr noundef nonnull align 8 dereferenceable(32) %1) unnamed_addr #0 comdat align 2 {
  %3 = alloca ptr, align 8
  %4 = alloca ptr, align 8
  store ptr %0, ptr %3, align 8
  store ptr %1, ptr %4, align 8
  %5 = load ptr, ptr %3, align 8
  %6 = load ptr, ptr %4, align 8
  call void @_ZNSt8__detail9__variant16_Variant_storageILb0EJSt8functionIFSt6vectorIN32pxrInternal_v0_24__pxrReserved__18UsdValidationErrorESaIS5_EERKNS4_9TfWeakPtrINS4_8SdfLayerEEEEES2_IFS7_RKNS8_INS4_8UsdStageEEEEES2_IFS7_RKNS4_7UsdPrimEEEEEC2ILm1EJRKSK_EEESt16in_place_index_tIXT_EEDpOT0_(ptr noundef nonnull align 8 dereferenceable(33) %5, ptr noundef nonnull align 8 dereferenceable(32) %6)
  ret void
}

; Function Attrs: mustprogress uwtable
define linkonce_odr void @_ZNSt8__detail9__variant15_Move_ctor_baseILb0EJSt8functionIFSt6vectorIN32pxrInternal_v0_24__pxrReserved__18UsdValidationErrorESaIS5_EERKNS4_9TfWeakPtrINS4_8SdfLayerEEEEES2_IFS7_RKNS8_INS4_8UsdStageEEEEES2_IFS7_RKNS4_7UsdPrimEEEEECI2NS0_16_Variant_storageILb0EJSE_SK_SP_EEEILm1EJRKSK_EEESt16in_place_index_tIXT_EEDpOT0_(ptr noundef nonnull align 8 dereferenceable(33) %0, ptr noundef nonnull align 8 dereferenceable(32) %1) unnamed_addr #0 comdat align 2 {
  %3 = alloca ptr, align 8
  %4 = alloca ptr, align 8
  store ptr %0, ptr %3, align 8
  store ptr %1, ptr %4, align 8
  %5 = load ptr, ptr %3, align 8
  %6 = load ptr, ptr %4, align 8
  call void @_ZNSt8__detail9__variant15_Copy_ctor_baseILb0EJSt8functionIFSt6vectorIN32pxrInternal_v0_24__pxrReserved__18UsdValidationErrorESaIS5_EERKNS4_9TfWeakPtrINS4_8SdfLayerEEEEES2_IFS7_RKNS8_INS4_8UsdStageEEEEES2_IFS7_RKNS4_7UsdPrimEEEEECI2NS0_16_Variant_storageILb0EJSE_SK_SP_EEEILm1EJRKSK_EEESt16in_place_index_tIXT_EEDpOT0_(ptr noundef nonnull align 8 dereferenceable(33) %5, ptr noundef nonnull align 8 dereferenceable(32) %6)
  ret void
}

; Function Attrs: mustprogress uwtable
define linkonce_odr void @_ZNSt8__detail9__variant17_Copy_assign_baseILb0EJSt8functionIFSt6vectorIN32pxrInternal_v0_24__pxrReserved__18UsdValidationErrorESaIS5_EERKNS4_9TfWeakPtrINS4_8SdfLayerEEEEES2_IFS7_RKNS8_INS4_8UsdStageEEEEES2_IFS7_RKNS4_7UsdPrimEEEEECI2NS0_16_Variant_storageILb0EJSE_SK_SP_EEEILm1EJRKSK_EEESt16in_place_index_tIXT_EEDpOT0_(ptr noundef nonnull align 8 dereferenceable(33) %0, ptr noundef nonnull align 8 dereferenceable(32) %1) unnamed_addr #0 comdat align 2 {
  %3 = alloca ptr, align 8
  %4 = alloca ptr, align 8
  store ptr %0, ptr %3, align 8
  store ptr %1, ptr %4, align 8
  %5 = load ptr, ptr %3, align 8
  %6 = load ptr, ptr %4, align 8
  call void @_ZNSt8__detail9__variant15_Move_ctor_baseILb0EJSt8functionIFSt6vectorIN32pxrInternal_v0_24__pxrReserved__18UsdValidationErrorESaIS5_EERKNS4_9TfWeakPtrINS4_8SdfLayerEEEEES2_IFS7_RKNS8_INS4_8UsdStageEEEEES2_IFS7_RKNS4_7UsdPrimEEEEECI2NS0_16_Variant_storageILb0EJSE_SK_SP_EEEILm1EJRKSK_EEESt16in_place_index_tIXT_EEDpOT0_(ptr noundef nonnull align 8 dereferenceable(33) %5, ptr noundef nonnull align 8 dereferenceable(32) %6)
  ret void
}

; Function Attrs: mustprogress uwtable
define linkonce_odr void @_ZNSt8__detail9__variant17_Move_assign_baseILb0EJSt8functionIFSt6vectorIN32pxrInternal_v0_24__pxrReserved__18UsdValidationErrorESaIS5_EERKNS4_9TfWeakPtrINS4_8SdfLayerEEEEES2_IFS7_RKNS8_INS4_8UsdStageEEEEES2_IFS7_RKNS4_7UsdPrimEEEEECI2NS0_16_Variant_storageILb0EJSE_SK_SP_EEEILm1EJRKSK_EEESt16in_place_index_tIXT_EEDpOT0_(ptr noundef nonnull align 8 dereferenceable(33) %0, ptr noundef nonnull align 8 dereferenceable(32) %1) unnamed_addr #0 comdat align 2 {
  %3 = alloca ptr, align 8
  %4 = alloca ptr, align 8
  store ptr %0, ptr %3, align 8
  store ptr %1, ptr %4, align 8
  %5 = load ptr, ptr %3, align 8
  %6 = load ptr, ptr %4, align 8
  call void @_ZNSt8__detail9__variant17_Copy_assign_baseILb0EJSt8functionIFSt6vectorIN32pxrInternal_v0_24__pxrReserved__18UsdValidationErrorESaIS5_EERKNS4_9TfWeakPtrINS4_8SdfLayerEEEEES2_IFS7_RKNS8_INS4_8UsdStageEEEEES2_IFS7_RKNS4_7UsdPrimEEEEECI2NS0_16_Variant_storageILb0EJSE_SK_SP_EEEILm1EJRKSK_EEESt16in_place_index_tIXT_EEDpOT0_(ptr noundef nonnull align 8 dereferenceable(33) %5, ptr noundef nonnull align 8 dereferenceable(32) %6)
  ret void
}

; Function Attrs: mustprogress nounwind uwtable
define linkonce_odr void @_ZNSt27_Enable_default_constructorILb1ESt7variantIJSt8functionIFSt6vectorIN32pxrInternal_v0_24__pxrReserved__18UsdValidationErrorESaIS4_EERKNS3_9TfWeakPtrINS3_8SdfLayerEEEEES1_IFS6_RKNS7_INS3_8UsdStageEEEEES1_IFS6_RKNS3_7UsdPrimEEEEEEC2ESt31_Enable_default_constructor_tag(ptr noundef nonnull align 1 dereferenceable(1) %0) unnamed_addr #1 comdat align 2 {
  %2 = alloca ptr, align 8
  store ptr %0, ptr %2, align 8
  ret void
}

; Function Attrs: mustprogress uwtable
define linkonce_odr void @_ZNSt8__detail9__variant13_Variant_baseIJSt8functionIFSt6vectorIN32pxrInternal_v0_24__pxrReserved__18UsdValidationErrorESaIS5_EERKNS4_9TfWeakPtrINS4_8SdfLayerEEEEES2_IFS7_RKNS8_INS4_8UsdStageEEEEES2_IFS7_RKNS4_7UsdPrimEEEEEC2ILm1EJRKSK_EEESt16in_place_index_tIXT_EEDpOT0_(ptr noundef nonnull align 8 dereferenceable(33) %0, ptr noundef nonnull align 8 dereferenceable(32) %1) unnamed_addr #0 comdat align 2 {
  %3 = alloca ptr, align 8
  %4 = alloca ptr, align 8
  store ptr %0, ptr %3, align 8
  store ptr %1, ptr %4, align 8
  %5 = load ptr, ptr %3, align 8
  %6 = load ptr, ptr %4, align 8
  call void @_ZNSt8__detail9__variant17_Move_assign_baseILb0EJSt8functionIFSt6vectorIN32pxrInternal_v0_24__pxrReserved__18UsdValidationErrorESaIS5_EERKNS4_9TfWeakPtrINS4_8SdfLayerEEEEES2_IFS7_RKNS8_INS4_8UsdStageEEEEES2_IFS7_RKNS4_7UsdPrimEEEEECI2NS0_16_Variant_storageILb0EJSE_SK_SP_EEEILm1EJRKSK_EEESt16in_place_index_tIXT_EEDpOT0_(ptr noundef nonnull align 8 dereferenceable(33) %5, ptr noundef nonnull align 8 dereferenceable(32) %6)
  ret void
}

; Function Attrs: mustprogress uwtable
define linkonce_odr void @_ZNSt7variantIJSt8functionIFSt6vectorIN32pxrInternal_v0_24__pxrReserved__18UsdValidationErrorESaIS3_EERKNS2_9TfWeakPtrINS2_8SdfLayerEEEEES0_IFS5_RKNS6_INS2_8UsdStageEEEEES0_IFS5_RKNS2_7UsdPrimEEEEEC2ILm1EJRKSI_ESI_vEESt16in_place_index_tIXT_EEDpOT0_(ptr noundef nonnull align 8 dereferenceable(33) %0, ptr noundef nonnull align 8 dereferenceable(32) %1) unnamed_addr #0 comdat align 2 {
  %3 = alloca ptr, align 8
  %4 = alloca ptr, align 8
  store ptr %0, ptr %3, align 8
  store ptr %1, ptr %4, align 8
  %5 = load ptr, ptr %3, align 8
  %6 = load ptr, ptr %4, align 8
  call void @_ZNSt8__detail9__variant13_Variant_baseIJSt8functionIFSt6vectorIN32pxrInternal_v0_24__pxrReserved__18UsdValidationErrorESaIS5_EERKNS4_9TfWeakPtrINS4_8SdfLayerEEEEES2_IFS7_RKNS8_INS4_8UsdStageEEEEES2_IFS7_RKNS4_7UsdPrimEEEEEC2ILm1EJRKSK_EEESt16in_place_index_tIXT_EEDpOT0_(ptr noundef nonnull align 8 dereferenceable(33) %5, ptr noundef nonnull align 8 dereferenceable(32) %6)
  call void @_ZNSt27_Enable_default_constructorILb1ESt7variantIJSt8functionIFSt6vectorIN32pxrInternal_v0_24__pxrReserved__18UsdValidationErrorESaIS4_EERKNS3_9TfWeakPtrINS3_8SdfLayerEEEEES1_IFS6_RKNS7_INS3_8UsdStageEEEEES1_IFS6_RKNS3_7UsdPrimEEEEEEC2ESt31_Enable_default_constructor_tag(ptr noundef nonnull align 1 dereferenceable(1) %5)
  ret void
}

; Function Attrs: mustprogress uwtable
define linkonce_odr void @_ZNSt7variantIJSt8functionIFSt6vectorIN32pxrInternal_v0_24__pxrReserved__18UsdValidationErrorESaIS3_EERKNS2_9TfWeakPtrINS2_8SdfLayerEEEEES0_IFS5_RKNS6_INS2_8UsdStageEEEEES0_IFS5_RKNS2_7UsdPrimEEEEEC2IRKSI_vvSI_vEEOT_(ptr noundef nonnull align 8 dereferenceable(33) %0, ptr noundef nonnull align 8 dereferenceable(32) %1) unnamed_addr #0 comdat align 2 {
  %3 = alloca ptr, align 8
  %4 = alloca ptr, align 8
  store ptr %0, ptr %3, align 8
  store ptr %1, ptr %4, align 8
  %5 = load ptr, ptr %3, align 8
  %6 = load ptr, ptr %4, align 8
  call void @_ZNSt7variantIJSt8functionIFSt6vectorIN32pxrInternal_v0_24__pxrReserved__18UsdValidationErrorESaIS3_EERKNS2_9TfWeakPtrINS2_8SdfLayerEEEEES0_IFS5_RKNS6_INS2_8UsdStageEEEEES0_IFS5_RKNS2_7UsdPrimEEEEEC2ILm1EJRKSI_ESI_vEESt16in_place_index_tIXT_EEDpOT0_(ptr noundef nonnull align 8 dereferenceable(33) %5, ptr noundef nonnull align 8 dereferenceable(32) %6)
  ret void
}

; Function Attrs: mustprogress uwtable
define void @_ZN32pxrInternal_v0_24__pxrReserved__12UsdValidatorC2ERKNS_20UsdValidatorMetadataERKSt8functionIFSt6vectorINS_18UsdValidationErrorESaIS6_EERKNS_9TfWeakPtrINS_8UsdStageEEEEE(ptr noundef nonnull align 8 dereferenceable(152) %0, ptr noundef nonnull align 8 dereferenceable(105) %1, ptr noundef nonnull align 8 dereferenceable(32) %2) unnamed_addr #0 align 2 personality ptr @__gxx_personality_v0 {
  %4 = alloca ptr, align 8
  %5 = alloca ptr, align 8
  %6 = alloca ptr, align 8
  %7 = alloca ptr, align 8
  %8 = alloca i32, align 4
  store ptr %0, ptr %4, align 8
  store ptr %1, ptr %5, align 8
  store ptr %2, ptr %6, align 8
  %9 = load ptr, ptr %4, align 8
  %10 = getelementptr inbounds nuw %"class.pxrInternal_v0_24__pxrReserved__::UsdValidator", ptr %9, i32 0, i32 0
  %11 = load ptr, ptr %5, align 8
  call void @_ZN32pxrInternal_v0_24__pxrReserved__20UsdValidatorMetadataC2ERKS0_(ptr noundef nonnull align 8 dereferenceable(105) %10, ptr noundef nonnull align 8 dereferenceable(105) %11)
  %12 = getelementptr inbounds nuw %"class.pxrInternal_v0_24__pxrReserved__::UsdValidator", ptr %9, i32 0, i32 1
  %13 = load ptr, ptr %6, align 8
  invoke void @_ZNSt7variantIJSt8functionIFSt6vectorIN32pxrInternal_v0_24__pxrReserved__18UsdValidationErrorESaIS3_EERKNS2_9TfWeakPtrINS2_8SdfLayerEEEEES0_IFS5_RKNS6_INS2_8UsdStageEEEEES0_IFS5_RKNS2_7UsdPrimEEEEEC2IRKSI_vvSI_vEEOT_(ptr noundef nonnull align 8 dereferenceable(33) %12, ptr noundef nonnull align 8 dereferenceable(32) %13)
          to label %14 unwind label %15

14:                                               ; preds = %3
  ret void

15:                                               ; preds = %3
  %16 = landingpad { ptr, i32 }
          cleanup
  %17 = extractvalue { ptr, i32 } %16, 0
  store ptr %17, ptr %7, align 8
  %18 = extractvalue { ptr, i32 } %16, 1
  store i32 %18, ptr %8, align 4
  call void @_ZN32pxrInternal_v0_24__pxrReserved__20UsdValidatorMetadataD2Ev(ptr noundef nonnull align 8 dereferenceable(105) %10) #11
  br label %19

19:                                               ; preds = %15
  %20 = load ptr, ptr %7, align 8
  %21 = load i32, ptr %8, align 4
  %22 = insertvalue { ptr, i32 } poison, ptr %20, 0
  %23 = insertvalue { ptr, i32 } %22, i32 %21, 1
  resume { ptr, i32 } %23
}