; Function Attrs: mustprogress uwtable
define void @_ZN32pxrInternal_v0_24__pxrReserved__12UsdValidatorC2ERKNS_20UsdValidatorMetadataERKSt8functionIFSt6vectorINS_18UsdValidationErrorESaIS6_EERKNS_9TfWeakPtrINS_8UsdStageEEEEE(ptr noundef nonnull align 8 dereferenceable(152) %0, ptr noundef nonnull align 8 dereferenceable(105) %1, ptr noundef nonnull align 8 dereferenceable(32) %2) unnamed_addr #0 align 2 personality ptr @__gxx_personality_v0 {
  tail call void @_ZN32pxrInternal_v0_24__pxrReserved__20UsdValidatorMetadataC2ERKS0_(ptr noundef nonnull align 8 dereferenceable(105) %0, ptr noundef nonnull align 8 dereferenceable(105) %1)
  %4 = getelementptr inbounds nuw i8, ptr %0, i64 112
  %5 = getelementptr inbounds nuw i8, ptr %0, i64 128
  %6 = getelementptr inbounds nuw i8, ptr %0, i64 136
  %7 = getelementptr inbounds nuw i8, ptr %2, i64 16
  tail call void @llvm.memset.p0.i64(ptr noundef nonnull align 8 dereferenceable(33) %4, i8 0, i64 32, i1 false)
  %8 = load ptr, ptr %7, align 8
  %.not.i.i.not.i.i.i.i.i.i.i.i.i.i.i.i = icmp eq ptr %8, null
  br i1 %.not.i.i.not.i.i.i.i.i.i.i.i.i.i.i.i, label %23, label %9

9:                                                ; preds = %3
  %10 = invoke noundef zeroext i1 %8(ptr noundef nonnull align 8 dereferenceable(33) %4, ptr noundef nonnull align 8 dereferenceable(32) %2, i32 noundef 2)
          to label %11 unwind label %15

11:                                               ; preds = %9
  %12 = getelementptr inbounds nuw i8, ptr %2, i64 24
  %13 = load ptr, ptr %12, align 8
  store ptr %13, ptr %6, align 8
  %14 = load ptr, ptr %7, align 8
  store ptr %14, ptr %5, align 8
  br label %23

15:                                               ; preds = %9
  %16 = landingpad { ptr, i32 }
          cleanup
  %17 = load ptr, ptr %5, align 8
  %.not.i.i.i.i.i.i.i.i.i.i.i.i.i = icmp eq ptr %17, null
  br i1 %.not.i.i.i.i.i.i.i.i.i.i.i.i.i, label %.body, label %18

18:                                               ; preds = %15
  %19 = invoke noundef zeroext i1 %17(ptr noundef nonnull align 8 dereferenceable(33) %4, ptr noundef nonnull align 8 dereferenceable(33) %4, i32 noundef 3)
          to label %.body unwind label %20

20:                                               ; preds = %18
  %21 = landingpad { ptr, i32 }
          catch ptr null
  %22 = extractvalue { ptr, i32 } %21, 0
  tail call void @__clang_call_terminate(ptr %22) #15
  unreachable

23:                                               ; preds = %11, %3
  %24 = getelementptr inbounds nuw i8, ptr %0, i64 144
  store i8 1, ptr %24, align 8
  ret void

.body:                                            ; preds = %15, %18
  tail call void @_ZN32pxrInternal_v0_24__pxrReserved__20UsdValidatorMetadataD2Ev(ptr noundef nonnull align 8 dereferenceable(105) %0) #14
  resume { ptr, i32 } %16
}